target datalayout = "e-m:e-p270:32:32-p271:32:32-p272:64:64-i64:64-i128:128-f80:128-n8:16:32:64-S128"
target triple = "x86_64-pc-linux-gnu"

%"class.std::locale" = type { ptr }
%"class.std::ios_base" = type { ptr, i64, i64, i32, i32, i32, ptr, %"struct.std::ios_base::_Words", [8 x %"struct.std::ios_base::_Words"], i32, ptr, %"class.std::locale" }
%"struct.std::ios_base::_Words" = type { ptr, i64 }
%"class.std::fpos" = type { i64, %struct.__mbstate_t }
%struct.__mbstate_t = type { i32, %union.anon.1 }
%union.anon.1 = type { i32 }
%"class.colvarmodule::quaternion" = type { double, double, double, double }

; Function Attrs: inlinehint mustprogress nounwind uwtable
define linkonce_odr noundef i32 @_ZStanSt12_Ios_IostateS_(i32 noundef %0, i32 noundef %1) #5 comdat {
  %3 = alloca i32, align 4
  %4 = alloca i32, align 4
  store i32 %0, ptr %3, align 4, !tbaa !85
  store i32 %1, ptr %4, align 4, !tbaa !85
  %5 = load i32, ptr %3, align 4, !tbaa !85
  %6 = load i32, ptr %4, align 4, !tbaa !85
  %7 = and i32 %5, %6
  ret i32 %7
}

; Function Attrs: inlinehint mustprogress nounwind uwtable
define linkonce_odr noundef i32 @_ZStorSt12_Ios_IostateS_(i32 noundef %0, i32 noundef %1) #5 comdat {
  %3 = alloca i32, align 4
  %4 = alloca i32, align 4
  store i32 %0, ptr %3, align 4, !tbaa !85
  store i32 %1, ptr %4, align 4, !tbaa !85
  %5 = load i32, ptr %3, align 4, !tbaa !85
  %6 = load i32, ptr %4, align 4, !tbaa !85
  %7 = or i32 %5, %6
  ret i32 %7
}

; Function Attrs: mustprogress nounwind uwtable
define available_externally noundef i32 @_ZNKSt9basic_iosIcSt11char_traitsIcEE7rdstateEv(ptr noundef nonnull align 8 dereferenceable(264) %0) #2 align 2 {
  %2 = alloca ptr, align 8
  store ptr %0, ptr %2, align 8, !tbaa !39
  %3 = load ptr, ptr %2, align 8
  %4 = getelementptr inbounds nuw %"class.std::ios_base", ptr %3, i32 0, i32 5
  %5 = load i32, ptr %4, align 8, !tbaa !86
  ret i32 %5
}

; Function Attrs: mustprogress uwtable
define available_externally noundef zeroext i1 @_ZNKSt9basic_iosIcSt11char_traitsIcEE4failEv(ptr noundef nonnull align 8 dereferenceable(264) %0) #0 align 2 {
  %2 = alloca ptr, align 8
  store ptr %0, ptr %2, align 8, !tbaa !39
  %3 = load ptr, ptr %2, align 8
  %4 = call noundef i32 @_ZNKSt9basic_iosIcSt11char_traitsIcEE7rdstateEv(ptr noundef nonnull align 8 dereferenceable(264) %3)
  %5 = call noundef i32 @_ZStorSt12_Ios_IostateS_(i32 noundef 1, i32 noundef 4)
  %6 = call noundef i32 @_ZStanSt12_Ios_IostateS_(i32 noundef %4, i32 noundef %5)
  %7 = icmp ne i32 %6, 0
  ret i1 %7
}

; Function Attrs: mustprogress uwtable
define available_externally void @_ZNSt9basic_iosIcSt11char_traitsIcEE8setstateESt12_Ios_Iostate(ptr noundef nonnull align 8 dereferenceable(264) %0, i32 noundef %1) #0 align 2 {
  %3 = alloca ptr, align 8
  %4 = alloca i32, align 4
  store ptr %0, ptr %3, align 8, !tbaa !39
  store i32 %1, ptr %4, align 4, !tbaa !85
  %5 = load ptr, ptr %3, align 8
  %6 = call noundef i32 @_ZNKSt9basic_iosIcSt11char_traitsIcEE7rdstateEv(ptr noundef nonnull align 8 dereferenceable(264) %5)
  %7 = load i32, ptr %4, align 4, !tbaa !85
  %8 = call noundef i32 @_ZStorSt12_Ios_IostateS_(i32 noundef %6, i32 noundef %7)
  call void @_ZNSt9basic_iosIcSt11char_traitsIcEE5clearESt12_Ios_Iostate(ptr noundef nonnull align 8 dereferenceable(264) %5, i32 noundef %8)
  ret void
}

; Function Attrs: mustprogress nounwind uwtable
define linkonce_odr noundef i64 @_ZNKSt4fposI11__mbstate_tEcvlEv(ptr noundef nonnull align 8 dereferenceable(16) %0) #2 comdat align 2 {
  %2 = alloca ptr, align 8
  store ptr %0, ptr %2, align 8, !tbaa !115
  %3 = load ptr, ptr %2, align 8
  %4 = getelementptr inbounds nuw %"class.std::fpos", ptr %3, i32 0, i32 0
  %5 = load i64, ptr %4, align 8, !tbaa !117
  ret i64 %5
}

; Function Attrs: mustprogress uwtable
define available_externally noundef nonnull align 8 dereferenceable(16) ptr @_ZNSirsERd(ptr noundef nonnull align 8 dereferenceable(16) %0, ptr noundef nonnull align 8 dereferenceable(8) %1) #0 align 2 {
  %3 = alloca ptr, align 8
  %4 = alloca ptr, align 8
  store ptr %0, ptr %3, align 8, !tbaa !102
  store ptr %1, ptr %4, align 8, !tbaa !104
  %5 = load ptr, ptr %3, align 8
  %6 = load ptr, ptr %4, align 8, !tbaa !104
  %7 = call noundef nonnull align 8 dereferenceable(16) ptr @_ZNSi10_M_extractIdEERSiRT_(ptr noundef nonnull align 8 dereferenceable(16) %5, ptr noundef nonnull align 8 dereferenceable(8) %6)
  ret ptr %7
}

; Function Attrs: mustprogress uwtable
define available_externally noundef zeroext i1 @_ZNKSt9basic_iosIcSt11char_traitsIcEEntEv(ptr noundef nonnull align 8 dereferenceable(264) %0) #0 align 2 {
  %2 = alloca ptr, align 8
  store ptr %0, ptr %2, align 8, !tbaa !39
  %3 = load ptr, ptr %2, align 8
  %4 = call noundef zeroext i1 @_ZNKSt9basic_iosIcSt11char_traitsIcEE4failEv(ptr noundef nonnull align 8 dereferenceable(264) %3)
  ret i1 %4
}

; Function Attrs: mustprogress uwtable
define noundef nonnull align 8 dereferenceable(16) ptr @_ZrsRSiRN12colvarmodule10quaternionE(ptr noundef nonnull align 8 dereferenceable(16) %0, ptr noundef nonnull align 8 dereferenceable(32) %1) #0 {
  %3 = alloca ptr, align 8
  %4 = alloca ptr, align 8
  %5 = alloca %"class.std::fpos", align 8
  %6 = alloca i8, align 1
  store ptr %0, ptr %3, align 8, !tbaa !102
  store ptr %1, ptr %4, align 8, !tbaa !120
  call void @llvm.lifetime.start.p0(i64 16, ptr %5) #16
  %7 = load ptr, ptr %3, align 8, !tbaa !102
  %8 = call { i64, i64 } @_ZNSi5tellgEv(ptr noundef nonnull align 8 dereferenceable(16) %7)
  %9 = getelementptr inbounds nuw { i64, i64 }, ptr %5, i32 0, i32 0
  %10 = extractvalue { i64, i64 } %8, 0
  store i64 %10, ptr %9, align 8
  %11 = getelementptr inbounds nuw { i64, i64 }, ptr %5, i32 0, i32 1
  %12 = extractvalue { i64, i64 } %8, 1
  store i64 %12, ptr %11, align 8
  call void @llvm.lifetime.start.p0(i64 1, ptr %6) #16
  %13 = load ptr, ptr %3, align 8, !tbaa !102
  %14 = call noundef nonnull align 8 dereferenceable(16) ptr @_ZStrsIcSt11char_traitsIcEERSt13basic_istreamIT_T0_ES6_RS3_(ptr noundef nonnull align 8 dereferenceable(16) %13, ptr noundef nonnull align 1 dereferenceable(1) %6)
  %15 = load ptr, ptr %14, align 8, !tbaa !9
  %16 = getelementptr i8, ptr %15, i64 -24
  %17 = load i64, ptr %16, align 8
  %18 = getelementptr inbounds i8, ptr %14, i64 %17
  %19 = call noundef zeroext i1 @_ZNKSt9basic_iosIcSt11char_traitsIcEEntEv(ptr noundef nonnull align 8 dereferenceable(264) %18)
  br i1 %19, label %112, label %20

20:                                               ; preds = %2
  %21 = load i8, ptr %6, align 1, !tbaa !79
  %22 = sext i8 %21 to i32
  %23 = icmp eq i32 %22, 40
  br i1 %23, label %24, label %112

24:                                               ; preds = %20
  %25 = load ptr, ptr %3, align 8, !tbaa !102
  %26 = load ptr, ptr %4, align 8, !tbaa !120
  %27 = getelementptr inbounds nuw %"class.colvarmodule::quaternion", ptr %26, i32 0, i32 0
  %28 = call noundef nonnull align 8 dereferenceable(16) ptr @_ZNSirsERd(ptr noundef nonnull align 8 dereferenceable(16) %25, ptr noundef nonnull align 8 dereferenceable(8) %27)
  %29 = load ptr, ptr %28, align 8, !tbaa !9
  %30 = getelementptr i8, ptr %29, i64 -24
  %31 = load i64, ptr %30, align 8
  %32 = getelementptr inbounds i8, ptr %28, i64 %31
  %33 = call noundef zeroext i1 @_ZNKSt9basic_iosIcSt11char_traitsIcEEntEv(ptr noundef nonnull align 8 dereferenceable(264) %32)
  br i1 %33, label %112, label %34

34:                                               ; preds = %24
  %35 = load ptr, ptr %3, align 8, !tbaa !102
  %36 = call noundef nonnull align 8 dereferenceable(16) ptr @_ZStrsIcSt11char_traitsIcEERSt13basic_istreamIT_T0_ES6_RS3_(ptr noundef nonnull align 8 dereferenceable(16) %35, ptr noundef nonnull align 1 dereferenceable(1) %6)
  %37 = load ptr, ptr %36, align 8, !tbaa !9
  %38 = getelementptr i8, ptr %37, i64 -24
  %39 = load i64, ptr %38, align 8
  %40 = getelementptr inbounds i8, ptr %36, i64 %39
  %41 = call noundef zeroext i1 @_ZNKSt9basic_iosIcSt11char_traitsIcEEntEv(ptr noundef nonnull align 8 dereferenceable(264) %40)
  br i1 %41, label %112, label %42

42:                                               ; preds = %34
  %43 = load i8, ptr %6, align 1, !tbaa !79
  %44 = sext i8 %43 to i32
  %45 = icmp eq i32 %44, 44
  br i1 %45, label %46, label %112

46:                                               ; preds = %42
  %47 = load ptr, ptr %3, align 8, !tbaa !102
  %48 = load ptr, ptr %4, align 8, !tbaa !120
  %49 = getelementptr inbounds nuw %"class.colvarmodule::quaternion", ptr %48, i32 0, i32 1
  %50 = call noundef nonnull align 8 dereferenceable(16) ptr @_ZNSirsERd(ptr noundef nonnull align 8 dereferenceable(16) %47, ptr noundef nonnull align 8 dereferenceable(8) %49)
  %51 = load ptr, ptr %50, align 8, !tbaa !9
  %52 = getelementptr i8, ptr %51, i64 -24
  %53 = load i64, ptr %52, align 8
  %54 = getelementptr inbounds i8, ptr %50, i64 %53
  %55 = call noundef zeroext i1 @_ZNKSt9basic_iosIcSt11char_traitsIcEEntEv(ptr noundef nonnull align 8 dereferenceable(264) %54)
  br i1 %55, label %112, label %56

56:                                               ; preds = %46
  %57 = load ptr, ptr %3, align 8, !tbaa !102
  %58 = call noundef nonnull align 8 dereferenceable(16) ptr @_ZStrsIcSt11char_traitsIcEERSt13basic_istreamIT_T0_ES6_RS3_(ptr noundef nonnull align 8 dereferenceable(16) %57, ptr noundef nonnull align 1 dereferenceable(1) %6)
  %59 = load ptr, ptr %58, align 8, !tbaa !9
  %60 = getelementptr i8, ptr %59, i64 -24
  %61 = load i64, ptr %60, align 8
  %62 = getelementptr inbounds i8, ptr %58, i64 %61
  %63 = call noundef zeroext i1 @_ZNKSt9basic_iosIcSt11char_traitsIcEEntEv(ptr noundef nonnull align 8 dereferenceable(264) %62)
  br i1 %63, label %112, label %64

64:                                               ; preds = %56
  %65 = load i8, ptr %6, align 1, !tbaa !79
  %66 = sext i8 %65 to i32
  %67 = icmp eq i32 %66, 44
  br i1 %67, label %68, label %112

68:                                               ; preds = %64
  %69 = load ptr, ptr %3, align 8, !tbaa !102
  %70 = load ptr, ptr %4, align 8, !tbaa !120
  %71 = getelementptr inbounds nuw %"class.colvarmodule::quaternion", ptr %70, i32 0, i32 2
  %72 = call noundef nonnull align 8 dereferenceable(16) ptr @_ZNSirsERd(ptr noundef nonnull align 8 dereferenceable(16) %69, ptr noundef nonnull align 8 dereferenceable(8) %71)
  %73 = load ptr, ptr %72, align 8, !tbaa !9
  %74 = getelementptr i8, ptr %73, i64 -24
  %75 = load i64, ptr %74, align 8
  %76 = getelementptr inbounds i8, ptr %72, i64 %75
  %77 = call noundef zeroext i1 @_ZNKSt9basic_iosIcSt11char_traitsIcEEntEv(ptr noundef nonnull align 8 dereferenceable(264) %76)
  br i1 %77, label %112, label %78

78:                                               ; preds = %68
  %79 = load ptr, ptr %3, align 8, !tbaa !102
  %80 = call noundef nonnull align 8 dereferenceable(16) ptr @_ZStrsIcSt11char_traitsIcEERSt13basic_istreamIT_T0_ES6_RS3_(ptr noundef nonnull align 8 dereferenceable(16) %79, ptr noundef nonnull align 1 dereferenceable(1) %6)
  %81 = load ptr, ptr %80, align 8, !tbaa !9
  %82 = getelementptr i8, ptr %81, i64 -24
  %83 = load i64, ptr %82, align 8
  %84 = getelementptr inbounds i8, ptr %80, i64 %83
  %85 = call noundef zeroext i1 @_ZNKSt9basic_iosIcSt11char_traitsIcEEntEv(ptr noundef nonnull align 8 dereferenceable(264) %84)
  br i1 %85, label %112, label %86

86:                                               ; preds = %78
  %87 = load i8, ptr %6, align 1, !tbaa !79
  %88 = sext i8 %87 to i32
  %89 = icmp eq i32 %88, 44
  br i1 %89, label %90, label %112

90:                                               ; preds = %86
  %91 = load ptr, ptr %3, align 8, !tbaa !102
  %92 = load ptr, ptr %4, align 8, !tbaa !120
  %93 = getelementptr inbounds nuw %"class.colvarmodule::quaternion", ptr %92, i32 0, i32 3
  %94 = call noundef nonnull align 8 dereferenceable(16) ptr @_ZNSirsERd(ptr noundef nonnull align 8 dereferenceable(16) %91, ptr noundef nonnull align 8 dereferenceable(8) %93)
  %95 = load ptr, ptr %94, align 8, !tbaa !9
  %96 = getelementptr i8, ptr %95, i64 -24
  %97 = load i64, ptr %96, align 8
  %98 = getelementptr inbounds i8, ptr %94, i64 %97
  %99 = call noundef zeroext i1 @_ZNKSt9basic_iosIcSt11char_traitsIcEEntEv(ptr noundef nonnull align 8 dereferenceable(264) %98)
  br i1 %99, label %112, label %100

100:                                              ; preds = %90
  %101 = load ptr, ptr %3, align 8, !tbaa !102
  %102 = call noundef nonnull align 8 dereferenceable(16) ptr @_ZStrsIcSt11char_traitsIcEERSt13basic_istreamIT_T0_ES6_RS3_(ptr noundef nonnull align 8 dereferenceable(16) %101, ptr noundef nonnull align 1 dereferenceable(1) %6)
  %103 = load ptr, ptr %102, align 8, !tbaa !9
  %104 = getelementptr i8, ptr %103, i64 -24
  %105 = load i64, ptr %104, align 8
  %106 = getelementptr inbounds i8, ptr %102, i64 %105
  %107 = call noundef zeroext i1 @_ZNKSt9basic_iosIcSt11char_traitsIcEEntEv(ptr noundef nonnull align 8 dereferenceable(264) %106)
  br i1 %107, label %112, label %108

108:                                              ; preds = %100
  %109 = load i8, ptr %6, align 1, !tbaa !79
  %110 = sext i8 %109 to i32
  %111 = icmp eq i32 %110, 41
  br i1 %111, label %126, label %112

112:                                              ; preds = %108, %100, %90, %86, %78, %68, %64, %56, %46, %42, %34, %24, %20, %2
  %113 = load ptr, ptr %3, align 8, !tbaa !102
  %114 = load ptr, ptr %113, align 8, !tbaa !9
  %115 = getelementptr i8, ptr %114, i64 -24
  %116 = load i64, ptr %115, align 8
  %117 = getelementptr inbounds i8, ptr %113, i64 %116
  call void @_ZNSt9basic_iosIcSt11char_traitsIcEE5clearESt12_Ios_Iostate(ptr noundef nonnull align 8 dereferenceable(264) %117, i32 noundef 0)
  %118 = load ptr, ptr %3, align 8, !tbaa !102
  %119 = call noundef i64 @_ZNKSt4fposI11__mbstate_tEcvlEv(ptr noundef nonnull align 8 dereferenceable(16) %5)
  %120 = call noundef nonnull align 8 dereferenceable(16) ptr @_ZNSi5seekgElSt12_Ios_Seekdir(ptr noundef nonnull align 8 dereferenceable(16) %118, i64 noundef %119, i32 noundef 0)
  %121 = load ptr, ptr %3, align 8, !tbaa !102
  %122 = load ptr, ptr %121, align 8, !tbaa !9
  %123 = getelementptr i8, ptr %122, i64 -24
  %124 = load i64, ptr %123, align 8
  %125 = getelementptr inbounds i8, ptr %121, i64 %124
  call void @_ZNSt9basic_iosIcSt11char_traitsIcEE8setstateESt12_Ios_Iostate(ptr noundef nonnull align 8 dereferenceable(264) %125, i32 noundef 4)
  br label %126

126:                                              ; preds = %112, %108
  %127 = load ptr, ptr %3, align 8, !tbaa !102
  call void @llvm.lifetime.end.p0(i64 1, ptr %6) #16
  call void @llvm.lifetime.end.p0(i64 16, ptr %5) #16
  ret ptr %127
}