; Function Attrs: mustprogress uwtable
define noundef nonnull align 8 dereferenceable(16) ptr @_ZrsRSiRN12colvarmodule10quaternionE(ptr noundef nonnull returned align 8 dereferenceable(16) %0, ptr noundef nonnull align 8 dereferenceable(32) %1) local_unnamed_addr #0 {
  %3 = alloca i8, align 1
  %4 = tail call { i64, i64 } @_ZNSi5tellgEv(ptr noundef nonnull align 8 dereferenceable(16) %0)
  %5 = extractvalue { i64, i64 } %4, 0
  call void @llvm.lifetime.start.p0(i64 1, ptr nonnull %3) #20
  %6 = call noundef nonnull align 8 dereferenceable(16) ptr @_ZStrsIcSt11char_traitsIcEERSt13basic_istreamIT_T0_ES6_RS3_(ptr noundef nonnull align 8 dereferenceable(16) %0, ptr noundef nonnull align 1 dereferenceable(1) %3)
  %7 = load ptr, ptr %6, align 8, !tbaa !4
  %8 = getelementptr i8, ptr %7, i64 -24
  %9 = load i64, ptr %8, align 8
  %10 = getelementptr inbounds i8, ptr %6, i64 %9
  %11 = getelementptr inbounds nuw i8, ptr %10, i64 32
  %12 = load i32, ptr %11, align 8, !tbaa !45
  %13 = and i32 %12, 5
  %14 = icmp ne i32 %13, 0
  %15 = load i8, ptr %3, align 1
  %16 = icmp ne i8 %15, 40
  %or.cond.not = select i1 %14, i1 true, i1 %16
  br i1 %or.cond.not, label %104, label %17

17:                                               ; preds = %2
  %18 = call noundef nonnull align 8 dereferenceable(16) ptr @_ZNSi10_M_extractIdEERSiRT_(ptr noundef nonnull align 8 dereferenceable(16) %0, ptr noundef nonnull align 8 dereferenceable(8) %1)
  %19 = load ptr, ptr %18, align 8, !tbaa !4
  %20 = getelementptr i8, ptr %19, i64 -24
  %21 = load i64, ptr %20, align 8
  %22 = getelementptr inbounds i8, ptr %18, i64 %21
  %23 = getelementptr inbounds nuw i8, ptr %22, i64 32
  %24 = load i32, ptr %23, align 8, !tbaa !45
  %25 = and i32 %24, 5
  %.not = icmp eq i32 %25, 0
  br i1 %.not, label %26, label %104

26:                                               ; preds = %17
  %27 = call noundef nonnull align 8 dereferenceable(16) ptr @_ZStrsIcSt11char_traitsIcEERSt13basic_istreamIT_T0_ES6_RS3_(ptr noundef nonnull align 8 dereferenceable(16) %0, ptr noundef nonnull align 1 dereferenceable(1) %3)
  %28 = load ptr, ptr %27, align 8, !tbaa !4
  %29 = getelementptr i8, ptr %28, i64 -24
  %30 = load i64, ptr %29, align 8
  %31 = getelementptr inbounds i8, ptr %27, i64 %30
  %32 = getelementptr inbounds nuw i8, ptr %31, i64 32
  %33 = load i32, ptr %32, align 8, !tbaa !45
  %34 = and i32 %33, 5
  %35 = icmp ne i32 %34, 0
  %36 = load i8, ptr %3, align 1
  %37 = icmp ne i8 %36, 44
  %or.cond6.not = select i1 %35, i1 true, i1 %37
  br i1 %or.cond6.not, label %104, label %38

38:                                               ; preds = %26
  %39 = getelementptr inbounds nuw i8, ptr %1, i64 8
  %40 = call noundef nonnull align 8 dereferenceable(16) ptr @_ZNSi10_M_extractIdEERSiRT_(ptr noundef nonnull align 8 dereferenceable(16) %0, ptr noundef nonnull align 8 dereferenceable(8) %39)
  %41 = load ptr, ptr %40, align 8, !tbaa !4
  %42 = getelementptr i8, ptr %41, i64 -24
  %43 = load i64, ptr %42, align 8
  %44 = getelementptr inbounds i8, ptr %40, i64 %43
  %45 = getelementptr inbounds nuw i8, ptr %44, i64 32
  %46 = load i32, ptr %45, align 8, !tbaa !45
  %47 = and i32 %46, 5
  %.not37 = icmp eq i32 %47, 0
  br i1 %.not37, label %48, label %104

48:                                               ; preds = %38
  %49 = call noundef nonnull align 8 dereferenceable(16) ptr @_ZStrsIcSt11char_traitsIcEERSt13basic_istreamIT_T0_ES6_RS3_(ptr noundef nonnull align 8 dereferenceable(16) %0, ptr noundef nonnull align 1 dereferenceable(1) %3)
  %50 = load ptr, ptr %49, align 8, !tbaa !4
  %51 = getelementptr i8, ptr %50, i64 -24
  %52 = load i64, ptr %51, align 8
  %53 = getelementptr inbounds i8, ptr %49, i64 %52
  %54 = getelementptr inbounds nuw i8, ptr %53, i64 32
  %55 = load i32, ptr %54, align 8, !tbaa !45
  %56 = and i32 %55, 5
  %57 = icmp ne i32 %56, 0
  %58 = load i8, ptr %3, align 1
  %59 = icmp ne i8 %58, 44
  %or.cond10.not = select i1 %57, i1 true, i1 %59
  br i1 %or.cond10.not, label %104, label %60

60:                                               ; preds = %48
  %61 = getelementptr inbounds nuw i8, ptr %1, i64 16
  %62 = call noundef nonnull align 8 dereferenceable(16) ptr @_ZNSi10_M_extractIdEERSiRT_(ptr noundef nonnull align 8 dereferenceable(16) %0, ptr noundef nonnull align 8 dereferenceable(8) %61)
  %63 = load ptr, ptr %62, align 8, !tbaa !4
  %64 = getelementptr i8, ptr %63, i64 -24
  %65 = load i64, ptr %64, align 8
  %66 = getelementptr inbounds i8, ptr %62, i64 %65
  %67 = getelementptr inbounds nuw i8, ptr %66, i64 32
  %68 = load i32, ptr %67, align 8, !tbaa !45
  %69 = and i32 %68, 5
  %.not38 = icmp eq i32 %69, 0
  br i1 %.not38, label %70, label %104

70:                                               ; preds = %60
  %71 = call noundef nonnull align 8 dereferenceable(16) ptr @_ZStrsIcSt11char_traitsIcEERSt13basic_istreamIT_T0_ES6_RS3_(ptr noundef nonnull align 8 dereferenceable(16) %0, ptr noundef nonnull align 1 dereferenceable(1) %3)
  %72 = load ptr, ptr %71, align 8, !tbaa !4
  %73 = getelementptr i8, ptr %72, i64 -24
  %74 = load i64, ptr %73, align 8
  %75 = getelementptr inbounds i8, ptr %71, i64 %74
  %76 = getelementptr inbounds nuw i8, ptr %75, i64 32
  %77 = load i32, ptr %76, align 8, !tbaa !45
  %78 = and i32 %77, 5
  %79 = icmp ne i32 %78, 0
  %80 = load i8, ptr %3, align 1
  %81 = icmp ne i8 %80, 44
  %or.cond14.not = select i1 %79, i1 true, i1 %81
  br i1 %or.cond14.not, label %104, label %82

82:                                               ; preds = %70
  %83 = getelementptr inbounds nuw i8, ptr %1, i64 24
  %84 = call noundef nonnull align 8 dereferenceable(16) ptr @_ZNSi10_M_extractIdEERSiRT_(ptr noundef nonnull align 8 dereferenceable(16) %0, ptr noundef nonnull align 8 dereferenceable(8) %83)
  %85 = load ptr, ptr %84, align 8, !tbaa !4
  %86 = getelementptr i8, ptr %85, i64 -24
  %87 = load i64, ptr %86, align 8
  %88 = getelementptr inbounds i8, ptr %84, i64 %87
  %89 = getelementptr inbounds nuw i8, ptr %88, i64 32
  %90 = load i32, ptr %89, align 8, !tbaa !45
  %91 = and i32 %90, 5
  %.not39 = icmp eq i32 %91, 0
  br i1 %.not39, label %92, label %104

92:                                               ; preds = %82
  %93 = call noundef nonnull align 8 dereferenceable(16) ptr @_ZStrsIcSt11char_traitsIcEERSt13basic_istreamIT_T0_ES6_RS3_(ptr noundef nonnull align 8 dereferenceable(16) %0, ptr noundef nonnull align 1 dereferenceable(1) %3)
  %94 = load ptr, ptr %93, align 8, !tbaa !4
  %95 = getelementptr i8, ptr %94, i64 -24
  %96 = load i64, ptr %95, align 8
  %97 = getelementptr inbounds i8, ptr %93, i64 %96
  %98 = getelementptr inbounds nuw i8, ptr %97, i64 32
  %99 = load i32, ptr %98, align 8, !tbaa !45
  %100 = and i32 %99, 5
  %101 = icmp ne i32 %100, 0
  %102 = load i8, ptr %3, align 1
  %103 = icmp ne i8 %102, 41
  %or.cond18.not = select i1 %101, i1 true, i1 %103
  br i1 %or.cond18.not, label %104, label %117

104:                                              ; preds = %92, %82, %70, %60, %48, %38, %26, %17, %2
  %105 = load ptr, ptr %0, align 8, !tbaa !4
  %106 = getelementptr i8, ptr %105, i64 -24
  %107 = load i64, ptr %106, align 8
  %108 = getelementptr inbounds i8, ptr %0, i64 %107
  call void @_ZNSt9basic_iosIcSt11char_traitsIcEE5clearESt12_Ios_Iostate(ptr noundef nonnull align 8 dereferenceable(264) %108, i32 noundef 0)
  %109 = call noundef nonnull align 8 dereferenceable(16) ptr @_ZNSi5seekgElSt12_Ios_Seekdir(ptr noundef nonnull align 8 dereferenceable(16) %0, i64 noundef %5, i32 noundef 0)
  %110 = load ptr, ptr %0, align 8, !tbaa !4
  %111 = getelementptr i8, ptr %110, i64 -24
  %112 = load i64, ptr %111, align 8
  %113 = getelementptr inbounds i8, ptr %0, i64 %112
  %114 = getelementptr inbounds nuw i8, ptr %113, i64 32
  %115 = load i32, ptr %114, align 8, !tbaa !45
  %116 = or i32 %115, 4
  call void @_ZNSt9basic_iosIcSt11char_traitsIcEE5clearESt12_Ios_Iostate(ptr noundef nonnull align 8 dereferenceable(264) %113, i32 noundef %116)
  br label %117

117:                                              ; preds = %92, %104
  call void @llvm.lifetime.end.p0(i64 1, ptr nonnull %3) #20
  ret ptr %0
}